; Function Attrs: mustprogress nounwind uwtable
define dso_local void @_ZN4llvm16SelectionDAGISel18Select_ARITH_FENCEEPNS_6SDNodeE(ptr noundef nonnull readonly align 8 captures(none) dereferenceable(272) %0, ptr noundef %1) local_unnamed_addr #0 align 2 {
  %3 = getelementptr inbounds nuw i8, ptr %0, i64 64
  %4 = load ptr, ptr %3, align 8
  %5 = getelementptr inbounds nuw i8, ptr %1, i64 48
  %6 = load ptr, ptr %5, align 8
  %.sroa.0.0.copyload.i = load i16, ptr %6, align 8
  %.sroa.21.0..sroa_idx.i = getelementptr inbounds nuw i8, ptr %6, i64 8
  %.sroa.21.0.copyload.i = load ptr, ptr %.sroa.21.0..sroa_idx.i, align 8
  %7 = getelementptr inbounds nuw i8, ptr %1, i64 40
  %8 = load ptr, ptr %7, align 8
  %9 = tail call noundef ptr @_ZN4llvm12SelectionDAG12SelectNodeToEPNS_6SDNodeEjNS_3EVTENS_7SDValueE(ptr noundef nonnull align 8 dereferenceable(904) %4, ptr noundef nonnull %1, i32 noundef 24, i16 %.sroa.0.0.copyload.i, ptr %.sroa.21.0.copyload.i, ptr noundef nonnull byval(%"class.llvm::SDValue") align 8 %8) #29
  ret void
}